target datalayout = "e-m:e-p270:32:32-p271:32:32-p272:64:64-i64:64-i128:128-f80:128-n8:16:32:64-S128"
target triple = "x86_64-unknown-linux-gnu"

%"class.std::__cxx11::basic_string" = type { %"struct.std::__cxx11::basic_string<char>::_Alloc_hider", i64, %union.anon }
%"struct.std::__cxx11::basic_string<char>::_Alloc_hider" = type { ptr }
%union.anon = type { i64, [8 x i8] }
%"class.base::Histogram::Factory" = type <{ ptr, ptr, i32, i32, i32, i32, i32, [4 x i8] }>
%"class.base::BucketRanges" = type <{ %"class.std::vector", i32, [4 x i8] }>
%"class.std::vector" = type { %"struct.std::_Vector_base" }
%"struct.std::_Vector_base" = type { %"struct.std::_Vector_base<int, std::allocator<int>>::_Vector_impl" }
%"struct.std::_Vector_base<int, std::allocator<int>>::_Vector_impl" = type { %"struct.std::_Vector_base<int, std::allocator<int>>::_Vector_impl_data" }
%"struct.std::_Vector_base<int, std::allocator<int>>::_Vector_impl_data" = type { ptr, ptr, ptr }
%"class.base::Histogram" = type <{ %"class.base::HistogramBase.base", [4 x i8], ptr, i32, i32, %"class.std::unique_ptr.24", %"class.std::unique_ptr.32", i8, [7 x i8] }>
%"class.base::HistogramBase.base" = type <{ ptr, %"class.std::__cxx11::basic_string", i32 }>
%"class.std::unique_ptr.24" = type { %"struct.std::__uniq_ptr_data.25" }
%"struct.std::__uniq_ptr_data.25" = type { %"class.std::__uniq_ptr_impl.26" }
%"class.std::__uniq_ptr_impl.26" = type { %"class.std::tuple.27" }
%"class.std::tuple.27" = type { %"struct.std::_Tuple_impl.28" }
%"struct.std::_Tuple_impl.28" = type { %"struct.std::_Head_base.31" }
%"struct.std::_Head_base.31" = type { ptr }
%"class.std::unique_ptr.32" = type { %"struct.std::__uniq_ptr_data.33" }
%"struct.std::__uniq_ptr_data.33" = type { %"class.std::__uniq_ptr_impl.34" }
%"class.std::__uniq_ptr_impl.34" = type { %"class.std::tuple.35" }
%"class.std::tuple.35" = type { %"struct.std::_Tuple_impl.36" }
%"struct.std::_Tuple_impl.36" = type { %"struct.std::_Head_base.39" }
%"struct.std::_Head_base.39" = type { ptr }
%"class.base::LinearHistogram::Factory" = type { %"class.base::Histogram::Factory.base", ptr }
%"class.base::Histogram::Factory.base" = type <{ ptr, ptr, i32, i32, i32, i32, i32 }>

@_ZN4base13HistogramBase15kSampleType_MAXE = external constant i32, align 4

; Function Attrs: mustprogress nounwind uwtable
define linkonce_odr dso_local void @_ZN4base9Histogram7FactoryC2ERKNSt7__cxx1112basic_stringIcSt11char_traitsIcESaIcEEENS_13HistogramTypeEiiji(ptr noundef nonnull align 8 dereferenceable(36) %this, ptr noundef nonnull align 8 dereferenceable(32) %name, i32 noundef %histogram_type, i32 noundef %minimum, i32 noundef %maximum, i32 noundef %bucket_count, i32 noundef %flags) unnamed_addr #2 comdat align 2 {
entry:
  %this.addr = alloca ptr, align 8
  %name.addr = alloca ptr, align 8
  %histogram_type.addr = alloca i32, align 4
  %minimum.addr = alloca i32, align 4
  %maximum.addr = alloca i32, align 4
  %bucket_count.addr = alloca i32, align 4
  %flags.addr = alloca i32, align 4
  store ptr %this, ptr %this.addr, align 8
  store ptr %name, ptr %name.addr, align 8
  store i32 %histogram_type, ptr %histogram_type.addr, align 4
  store i32 %minimum, ptr %minimum.addr, align 4
  store i32 %maximum, ptr %maximum.addr, align 4
  store i32 %bucket_count, ptr %bucket_count.addr, align 4
  store i32 %flags, ptr %flags.addr, align 4
  %this1 = load ptr, ptr %this.addr, align 8
  store ptr getelementptr inbounds ({ [5 x ptr] }, ptr @_ZTVN4base9Histogram7FactoryE, i32 0, i32 0, i32 2), ptr %this1, align 8
  %name_ = getelementptr inbounds %"class.base::Histogram::Factory", ptr %this1, i32 0, i32 1
  %0 = load ptr, ptr %name.addr, align 8
  store ptr %0, ptr %name_, align 8
  %histogram_type_ = getelementptr inbounds %"class.base::Histogram::Factory", ptr %this1, i32 0, i32 2
  %1 = load i32, ptr %histogram_type.addr, align 4
  store i32 %1, ptr %histogram_type_, align 8
  %minimum_ = getelementptr inbounds %"class.base::Histogram::Factory", ptr %this1, i32 0, i32 3
  %2 = load i32, ptr %minimum.addr, align 4
  store i32 %2, ptr %minimum_, align 4
  %maximum_ = getelementptr inbounds %"class.base::Histogram::Factory", ptr %this1, i32 0, i32 4
  %3 = load i32, ptr %maximum.addr, align 4
  store i32 %3, ptr %maximum_, align 8
  %bucket_count_ = getelementptr inbounds %"class.base::Histogram::Factory", ptr %this1, i32 0, i32 5
  %4 = load i32, ptr %bucket_count.addr, align 4
  store i32 %4, ptr %bucket_count_, align 4
  %flags_ = getelementptr inbounds %"class.base::Histogram::Factory", ptr %this1, i32 0, i32 6
  %5 = load i32, ptr %flags.addr, align 4
  store i32 %5, ptr %flags_, align 8
  ret void
}

; Function Attrs: mustprogress nounwind uwtable
define linkonce_odr dso_local void @_ZN4base15LinearHistogram7FactoryC2ERKNSt7__cxx1112basic_stringIcSt11char_traitsIcESaIcEEEiijiPKNS0_15DescriptionPairE(ptr noundef nonnull align 8 dereferenceable(48) %this, ptr noundef nonnull align 8 dereferenceable(32) %name, i32 noundef %minimum, i32 noundef %maximum, i32 noundef %bucket_count, i32 noundef %flags, ptr noundef %descriptions) unnamed_addr #2 comdat align 2 {
entry:
  %this.addr = alloca ptr, align 8
  %name.addr = alloca ptr, align 8
  %minimum.addr = alloca i32, align 4
  %maximum.addr = alloca i32, align 4
  %bucket_count.addr = alloca i32, align 4
  %flags.addr = alloca i32, align 4
  %descriptions.addr = alloca ptr, align 8
  store ptr %this, ptr %this.addr, align 8
  store ptr %name, ptr %name.addr, align 8
  store i32 %minimum, ptr %minimum.addr, align 4
  store i32 %maximum, ptr %maximum.addr, align 4
  store i32 %bucket_count, ptr %bucket_count.addr, align 4
  store i32 %flags, ptr %flags.addr, align 4
  store ptr %descriptions, ptr %descriptions.addr, align 8
  %this1 = load ptr, ptr %this.addr, align 8
  %0 = load ptr, ptr %name.addr, align 8
  %1 = load i32, ptr %minimum.addr, align 4
  %2 = load i32, ptr %maximum.addr, align 4
  %3 = load i32, ptr %bucket_count.addr, align 4
  %4 = load i32, ptr %flags.addr, align 4
  call void @_ZN4base9Histogram7FactoryC2ERKNSt7__cxx1112basic_stringIcSt11char_traitsIcESaIcEEENS_13HistogramTypeEiiji(ptr noundef nonnull align 8 dereferenceable(36) %this1, ptr noundef nonnull align 8 dereferenceable(32) %0, i32 noundef 1, i32 noundef %1, i32 noundef %2, i32 noundef %3, i32 noundef %4)
  store ptr getelementptr inbounds ({ [5 x ptr] }, ptr @_ZTVN4base15LinearHistogram7FactoryE, i32 0, i32 0, i32 2), ptr %this1, align 8
  %5 = load ptr, ptr %descriptions.addr, align 8
  %descriptions_ = getelementptr inbounds %"class.base::LinearHistogram::Factory", ptr %this1, i32 0, i32 1
  store ptr %5, ptr %descriptions_, align 8
  ret void
}

; Function Attrs: mustprogress nounwind uwtable
define dso_local noundef zeroext i1 @_ZN4base9Histogram28InspectConstructionArgumentsERKNSt7__cxx1112basic_stringIcSt11char_traitsIcESaIcEEEPiS9_Pj(ptr noundef nonnull align 8 dereferenceable(32) %name, ptr noundef %minimum, ptr noundef %maximum, ptr noundef %bucket_count) #2 align 2 {
entry:
  %retval = alloca i1, align 1
  %name.addr = alloca ptr, align 8
  %minimum.addr = alloca ptr, align 8
  %maximum.addr = alloca ptr, align 8
  %bucket_count.addr = alloca ptr, align 8
  store ptr %name, ptr %name.addr, align 8
  store ptr %minimum, ptr %minimum.addr, align 8
  store ptr %maximum, ptr %maximum.addr, align 8
  store ptr %bucket_count, ptr %bucket_count.addr, align 8
  %0 = load ptr, ptr %minimum.addr, align 8
  %1 = load i32, ptr %0, align 4
  %cmp = icmp slt i32 %1, 1
  br i1 %cmp, label %if.then, label %if.end

if.then:                                          ; preds = %entry
  %2 = load ptr, ptr %minimum.addr, align 8
  store i32 1, ptr %2, align 4
  br label %if.end

if.end:                                           ; preds = %if.then, %entry
  %3 = load ptr, ptr %maximum.addr, align 8
  %4 = load i32, ptr %3, align 4
  %5 = load i32, ptr @_ZN4base13HistogramBase15kSampleType_MAXE, align 4
  %cmp1 = icmp sge i32 %4, %5
  br i1 %cmp1, label %if.then2, label %if.end3

if.then2:                                         ; preds = %if.end
  %6 = load i32, ptr @_ZN4base13HistogramBase15kSampleType_MAXE, align 4
  %sub = sub nsw i32 %6, 1
  %7 = load ptr, ptr %maximum.addr, align 8
  store i32 %sub, ptr %7, align 4
  br label %if.end3

if.end3:                                          ; preds = %if.then2, %if.end
  %8 = load ptr, ptr %bucket_count.addr, align 8
  %9 = load i32, ptr %8, align 4
  %cmp4 = icmp uge i32 %9, 16384
  br i1 %cmp4, label %if.then5, label %if.end6

if.then5:                                         ; preds = %if.end3
  %10 = load ptr, ptr %bucket_count.addr, align 8
  store i32 16383, ptr %10, align 4
  br label %if.end6

if.end6:                                          ; preds = %if.then5, %if.end3
  %11 = load ptr, ptr %minimum.addr, align 8
  %12 = load i32, ptr %11, align 4
  %13 = load ptr, ptr %maximum.addr, align 8
  %14 = load i32, ptr %13, align 4
  %cmp7 = icmp sge i32 %12, %14
  br i1 %cmp7, label %if.then8, label %if.end9

if.then8:                                         ; preds = %if.end6
  store i1 false, ptr %retval, align 1
  br label %return

if.end9:                                          ; preds = %if.end6
  %15 = load ptr, ptr %bucket_count.addr, align 8
  %16 = load i32, ptr %15, align 4
  %cmp10 = icmp ult i32 %16, 3
  br i1 %cmp10, label %if.then11, label %if.end12

if.then11:                                        ; preds = %if.end9
  store i1 false, ptr %retval, align 1
  br label %return

if.end12:                                         ; preds = %if.end9
  %17 = load ptr, ptr %bucket_count.addr, align 8
  %18 = load i32, ptr %17, align 4
  %19 = load ptr, ptr %maximum.addr, align 8
  %20 = load i32, ptr %19, align 4
  %21 = load ptr, ptr %minimum.addr, align 8
  %22 = load i32, ptr %21, align 4
  %sub13 = sub nsw i32 %20, %22
  %add = add nsw i32 %sub13, 2
  %cmp14 = icmp ugt i32 %18, %add
  br i1 %cmp14, label %if.then15, label %if.end16

if.then15:                                        ; preds = %if.end12
  store i1 false, ptr %retval, align 1
  br label %return

if.end16:                                         ; preds = %if.end12
  store i1 true, ptr %retval, align 1
  br label %return

return:                                           ; preds = %if.end16, %if.then15, %if.then11, %if.then8
  %23 = load i1, ptr %retval, align 1
  ret i1 %23
}

; Function Attrs: mustprogress nounwind uwtable
define linkonce_odr dso_local noundef i32 @_ZNK4base12BucketRanges8checksumEv(ptr noundef nonnull align 8 dereferenceable(28) %this) #2 comdat align 2 {
entry:
  %this.addr = alloca ptr, align 8
  store ptr %this, ptr %this.addr, align 8
  %this1 = load ptr, ptr %this.addr, align 8
  %checksum_ = getelementptr inbounds %"class.base::BucketRanges", ptr %this1, i32 0, i32 1
  %0 = load i32, ptr %checksum_, align 8
  ret i32 %0
}

; Function Attrs: mustprogress nounwind uwtable
define linkonce_odr dso_local noundef ptr @_ZNK4base9Histogram13bucket_rangesEv(ptr noundef nonnull align 8 dereferenceable(81) %this) #2 comdat align 2 {
entry:
  %this.addr = alloca ptr, align 8
  store ptr %this, ptr %this.addr, align 8
  %this1 = load ptr, ptr %this.addr, align 8
  %bucket_ranges_ = getelementptr inbounds %"class.base::Histogram", ptr %this1, i32 0, i32 2
  %0 = load ptr, ptr %bucket_ranges_, align 8
  ret ptr %0
}

; Function Attrs: mustprogress uwtable
define dso_local noundef ptr @_ZN4base15LinearHistogram30FactoryGetWithRangeDescriptionERKNSt7__cxx1112basic_stringIcSt11char_traitsIcESaIcEEEiijiPKNS0_15DescriptionPairE(ptr noundef nonnull align 8 dereferenceable(32) %name, i32 noundef %minimum, i32 noundef %maximum, i32 noundef %bucket_count, i32 noundef %flags, ptr noundef %descriptions) #0 align 2 {
entry:
  %name.addr = alloca ptr, align 8
  %minimum.addr = alloca i32, align 4
  %maximum.addr = alloca i32, align 4
  %bucket_count.addr = alloca i32, align 4
  %flags.addr = alloca i32, align 4
  %descriptions.addr = alloca ptr, align 8
  %valid_arguments = alloca i8, align 1
  %ref.tmp = alloca %"class.base::LinearHistogram::Factory", align 8
  store ptr %name, ptr %name.addr, align 8
  store i32 %minimum, ptr %minimum.addr, align 4
  store i32 %maximum, ptr %maximum.addr, align 4
  store i32 %bucket_count, ptr %bucket_count.addr, align 4
  store i32 %flags, ptr %flags.addr, align 4
  store ptr %descriptions, ptr %descriptions.addr, align 8
  %0 = load ptr, ptr %name.addr, align 8
  %call = call noundef zeroext i1 @_ZN4base9Histogram28InspectConstructionArgumentsERKNSt7__cxx1112basic_stringIcSt11char_traitsIcESaIcEEEPiS9_Pj(ptr noundef nonnull align 8 dereferenceable(32) %0, ptr noundef %minimum.addr, ptr noundef %maximum.addr, ptr noundef %bucket_count.addr)
  %frombool = zext i1 %call to i8
  store i8 %frombool, ptr %valid_arguments, align 1
  %1 = load ptr, ptr %name.addr, align 8
  %2 = load i32, ptr %minimum.addr, align 4
  %3 = load i32, ptr %maximum.addr, align 4
  %4 = load i32, ptr %bucket_count.addr, align 4
  %5 = load i32, ptr %flags.addr, align 4
  %6 = load ptr, ptr %descriptions.addr, align 8
  call void @_ZN4base15LinearHistogram7FactoryC2ERKNSt7__cxx1112basic_stringIcSt11char_traitsIcESaIcEEEiijiPKNS0_15DescriptionPairE(ptr noundef nonnull align 8 dereferenceable(48) %ref.tmp, ptr noundef nonnull align 8 dereferenceable(32) %1, i32 noundef %2, i32 noundef %3, i32 noundef %4, i32 noundef %5, ptr noundef %6)
  %call1 = call noundef ptr @_ZN4base9Histogram7Factory5BuildEv(ptr noundef nonnull align 8 dereferenceable(36) %ref.tmp)
  ret ptr %call1
}

; Function Attrs: mustprogress nounwind uwtable
define internal noundef zeroext i1 @_ZN4base12_GLOBAL__N_121ValidateRangeChecksumERKNS_13HistogramBaseEj(ptr noundef nonnull align 8 dereferenceable(44) %histogram, i32 noundef %range_checksum) #2 {
entry:
  %histogram.addr = alloca ptr, align 8
  %range_checksum.addr = alloca i32, align 4
  %casted_histogram = alloca ptr, align 8
  store ptr %histogram, ptr %histogram.addr, align 8
  store i32 %range_checksum, ptr %range_checksum.addr, align 4
  %0 = load ptr, ptr %histogram.addr, align 8
  store ptr %0, ptr %casted_histogram, align 8
  %1 = load ptr, ptr %casted_histogram, align 8
  %call = call noundef ptr @_ZNK4base9Histogram13bucket_rangesEv(ptr noundef nonnull align 8 dereferenceable(81) %1)
  %call1 = call noundef i32 @_ZNK4base12BucketRanges8checksumEv(ptr noundef nonnull align 8 dereferenceable(28) %call)
  %2 = load i32, ptr %range_checksum.addr, align 4
  %cmp = icmp eq i32 %call1, %2
  ret i1 %cmp
}

; Function Attrs: mustprogress uwtable
define dso_local noundef ptr @_ZN4base15LinearHistogram10FactoryGetERKNSt7__cxx1112basic_stringIcSt11char_traitsIcESaIcEEEiiji(ptr noundef nonnull align 8 dereferenceable(32) %name, i32 noundef %minimum, i32 noundef %maximum, i32 noundef %bucket_count, i32 noundef %flags) #0 align 2 {
entry:
  %name.addr = alloca ptr, align 8
  %minimum.addr = alloca i32, align 4
  %maximum.addr = alloca i32, align 4
  %bucket_count.addr = alloca i32, align 4
  %flags.addr = alloca i32, align 4
  store ptr %name, ptr %name.addr, align 8
  store i32 %minimum, ptr %minimum.addr, align 4
  store i32 %maximum, ptr %maximum.addr, align 4
  store i32 %bucket_count, ptr %bucket_count.addr, align 4
  store i32 %flags, ptr %flags.addr, align 4
  %0 = load ptr, ptr %name.addr, align 8
  %1 = load i32, ptr %minimum.addr, align 4
  %2 = load i32, ptr %maximum.addr, align 4
  %3 = load i32, ptr %bucket_count.addr, align 4
  %4 = load i32, ptr %flags.addr, align 4
  %call = call noundef ptr @_ZN4base15LinearHistogram30FactoryGetWithRangeDescriptionERKNSt7__cxx1112basic_stringIcSt11char_traitsIcESaIcEEEiijiPKNS0_15DescriptionPairE(ptr noundef nonnull align 8 dereferenceable(32) %0, i32 noundef %1, i32 noundef %2, i32 noundef %3, i32 noundef %4, ptr noundef null)
  ret ptr %call
}

; Function Attrs: mustprogress uwtable
define dso_local noundef ptr @_ZN4base15LinearHistogram19DeserializeInfoImplEPNS_14PickleIteratorE(ptr noundef %iter) #0 align 2 personality ptr @__gxx_personality_v0 {
entry:
  %retval = alloca ptr, align 8
  %iter.addr = alloca ptr, align 8
  %histogram_name = alloca %"class.std::__cxx11::basic_string", align 8
  %flags = alloca i32, align 4
  %declared_min = alloca i32, align 4
  %declared_max = alloca i32, align 4
  %bucket_count = alloca i32, align 4
  %range_checksum = alloca i32, align 4
  %exn.slot = alloca ptr, align 8
  %ehselector.slot = alloca i32, align 4
  %cleanup.dest.slot = alloca i32, align 4
  %histogram = alloca ptr, align 8
  store ptr %iter, ptr %iter.addr, align 8
  call void @_ZNSt7__cxx1112basic_stringIcSt11char_traitsIcESaIcEEC1Ev(ptr noundef nonnull align 8 dereferenceable(32) %histogram_name) #12
  %0 = load ptr, ptr %iter.addr, align 8
  %call = invoke noundef zeroext i1 @_ZN4base12_GLOBAL__N_122ReadHistogramArgumentsEPNS_14PickleIteratorEPNSt7__cxx1112basic_stringIcSt11char_traitsIcESaIcEEEPiSA_SA_PjSB_(ptr noundef %0, ptr noundef %histogram_name, ptr noundef %flags, ptr noundef %declared_min, ptr noundef %declared_max, ptr noundef %bucket_count, ptr noundef %range_checksum)
          to label %invoke.cont unwind label %lpad

invoke.cont:                                      ; preds = %entry
  br i1 %call, label %if.end, label %if.then

if.then:                                          ; preds = %invoke.cont
  store ptr null, ptr %retval, align 8
  store i32 1, ptr %cleanup.dest.slot, align 4
  br label %cleanup

lpad:                                             ; preds = %invoke.cont1, %if.end, %entry
  %1 = landingpad { ptr, i32 }
          cleanup
  %2 = extractvalue { ptr, i32 } %1, 0
  store ptr %2, ptr %exn.slot, align 8
  %3 = extractvalue { ptr, i32 } %1, 1
  store i32 %3, ptr %ehselector.slot, align 4
  call void @_ZNSt7__cxx1112basic_stringIcSt11char_traitsIcESaIcEED1Ev(ptr noundef nonnull align 8 dereferenceable(32) %histogram_name) #12
  br label %eh.resume

if.end:                                           ; preds = %invoke.cont
  %4 = load i32, ptr %declared_min, align 4
  %5 = load i32, ptr %declared_max, align 4
  %6 = load i32, ptr %bucket_count, align 4
  %7 = load i32, ptr %flags, align 4
  %call2 = invoke noundef ptr @_ZN4base15LinearHistogram10FactoryGetERKNSt7__cxx1112basic_stringIcSt11char_traitsIcESaIcEEEiiji(ptr noundef nonnull align 8 dereferenceable(32) %histogram_name, i32 noundef %4, i32 noundef %5, i32 noundef %6, i32 noundef %7)
          to label %invoke.cont1 unwind label %lpad

invoke.cont1:                                     ; preds = %if.end
  store ptr %call2, ptr %histogram, align 8
  %8 = load ptr, ptr %histogram, align 8
  %9 = load i32, ptr %range_checksum, align 4
  %call4 = invoke noundef zeroext i1 @_ZN4base12_GLOBAL__N_121ValidateRangeChecksumERKNS_13HistogramBaseEj(ptr noundef nonnull align 8 dereferenceable(44) %8, i32 noundef %9)
          to label %invoke.cont3 unwind label %lpad

invoke.cont3:                                     ; preds = %invoke.cont1
  br i1 %call4, label %if.end6, label %if.then5

if.then5:                                         ; preds = %invoke.cont3
  store ptr null, ptr %retval, align 8
  store i32 1, ptr %cleanup.dest.slot, align 4
  br label %cleanup

if.end6:                                          ; preds = %invoke.cont3
  %10 = load ptr, ptr %histogram, align 8
  store ptr %10, ptr %retval, align 8
  store i32 1, ptr %cleanup.dest.slot, align 4
  br label %cleanup

cleanup:                                          ; preds = %if.end6, %if.then5, %if.then
  call void @_ZNSt7__cxx1112basic_stringIcSt11char_traitsIcESaIcEED1Ev(ptr noundef nonnull align 8 dereferenceable(32) %histogram_name) #12
  %11 = load ptr, ptr %retval, align 8
  ret ptr %11

eh.resume:                                        ; preds = %lpad
  %exn = load ptr, ptr %exn.slot, align 8
  %sel = load i32, ptr %ehselector.slot, align 4
  %lpad.val = insertvalue { ptr, i32 } poison, ptr %exn, 0
  %lpad.val7 = insertvalue { ptr, i32 } %lpad.val, i32 %sel, 1
  resume { ptr, i32 } %lpad.val7
}