; Function Attrs: mustprogress uwtable
define dso_local noundef ptr @_ZN4base15LinearHistogram19DeserializeInfoImplEPNS_14PickleIteratorE(ptr noundef %iter) local_unnamed_addr #0 align 2 personality ptr @__gxx_personality_v0 {
entry:
  %ref.tmp.i.i = alloca %"class.base::LinearHistogram::Factory", align 8
  %histogram_name = alloca %"class.std::__cxx11::basic_string", align 8
  %flags = alloca i32, align 4
  %declared_min = alloca i32, align 4
  %declared_max = alloca i32, align 4
  %bucket_count = alloca i32, align 4
  %range_checksum = alloca i32, align 4
  call void @_ZNSt7__cxx1112basic_stringIcSt11char_traitsIcESaIcEEC1Ev(ptr noundef nonnull align 8 dereferenceable(32) %histogram_name) #19
  %call = invoke fastcc noundef zeroext i1 @_ZN4base12_GLOBAL__N_122ReadHistogramArgumentsEPNS_14PickleIteratorEPNSt7__cxx1112basic_stringIcSt11char_traitsIcESaIcEEEPiSA_SA_PjSB_(ptr noundef %iter, ptr noundef nonnull %histogram_name, ptr noundef nonnull %flags, ptr noundef nonnull %declared_min, ptr noundef nonnull %declared_max, ptr noundef nonnull %bucket_count, ptr noundef nonnull %range_checksum)
          to label %invoke.cont unwind label %lpad

invoke.cont:                                      ; preds = %entry
  br i1 %call, label %if.end, label %cleanup

lpad:                                             ; preds = %if.end, %entry
  %0 = landingpad { ptr, i32 }
          cleanup
  call void @_ZNSt7__cxx1112basic_stringIcSt11char_traitsIcESaIcEED1Ev(ptr noundef nonnull align 8 dereferenceable(32) %histogram_name) #19
  resume { ptr, i32 } %0

if.end:                                           ; preds = %invoke.cont
  %1 = load i32, ptr %declared_min, align 4
  %2 = load i32, ptr %declared_max, align 4
  %3 = load i32, ptr %bucket_count, align 4
  %4 = load i32, ptr %flags, align 4
  call void @llvm.lifetime.start.p0(i64 48, ptr nonnull %ref.tmp.i.i)
  %spec.select.i.i = call i32 @llvm.smax.i32(i32 %1, i32 1)
  %5 = load i32, ptr @_ZN4base13HistogramBase15kSampleType_MAXE, align 4
  %cmp1.not.i.i.i = icmp sgt i32 %5, %2
  %sub.i.i.i = add nsw i32 %5, -1
  %maximum.addr.0.i.i = select i1 %cmp1.not.i.i.i, i32 %2, i32 %sub.i.i.i
  %bucket_count.addr.1.i.i = call i32 @llvm.umin.i32(i32 %3, i32 16383)
  %name_.i.i.i.i = getelementptr inbounds i8, ptr %ref.tmp.i.i, i64 8
  store ptr %histogram_name, ptr %name_.i.i.i.i, align 8
  %histogram_type_.i.i.i.i = getelementptr inbounds i8, ptr %ref.tmp.i.i, i64 16
  store i32 1, ptr %histogram_type_.i.i.i.i, align 8
  %minimum_.i.i.i.i = getelementptr inbounds i8, ptr %ref.tmp.i.i, i64 20
  store i32 %spec.select.i.i, ptr %minimum_.i.i.i.i, align 4
  %maximum_.i.i.i.i = getelementptr inbounds i8, ptr %ref.tmp.i.i, i64 24
  store i32 %maximum.addr.0.i.i, ptr %maximum_.i.i.i.i, align 8
  %bucket_count_.i.i.i.i = getelementptr inbounds i8, ptr %ref.tmp.i.i, i64 28
  store i32 %bucket_count.addr.1.i.i, ptr %bucket_count_.i.i.i.i, align 4
  %flags_.i.i.i.i = getelementptr inbounds i8, ptr %ref.tmp.i.i, i64 32
  store i32 %4, ptr %flags_.i.i.i.i, align 8
  store ptr getelementptr inbounds ({ [5 x ptr] }, ptr @_ZTVN4base15LinearHistogram7FactoryE, i64 0, i32 0, i64 2), ptr %ref.tmp.i.i, align 8
  %descriptions_.i.i.i = getelementptr inbounds i8, ptr %ref.tmp.i.i, i64 40
  store ptr null, ptr %descriptions_.i.i.i, align 8
  %call1.i.i2 = invoke noundef ptr @_ZN4base9Histogram7Factory5BuildEv(ptr noundef nonnull align 8 dereferenceable(36) %ref.tmp.i.i)
          to label %invoke.cont1 unwind label %lpad

invoke.cont1:                                     ; preds = %if.end
  call void @llvm.lifetime.end.p0(i64 48, ptr nonnull %ref.tmp.i.i)
  %6 = load i32, ptr %range_checksum, align 4
  %7 = getelementptr i8, ptr %call1.i.i2, i64 48
  %call2.val = load ptr, ptr %7, align 8
  %8 = getelementptr i8, ptr %call2.val, i64 24
  %call2.val.val = load i32, ptr %8, align 8
  %cmp.i = icmp eq i32 %call2.val.val, %6
  %call2. = select i1 %cmp.i, ptr %call1.i.i2, ptr null
  br label %cleanup

cleanup:                                          ; preds = %invoke.cont1, %invoke.cont
  %retval.0 = phi ptr [ null, %invoke.cont ], [ %call2., %invoke.cont1 ]
  call void @_ZNSt7__cxx1112basic_stringIcSt11char_traitsIcESaIcEED1Ev(ptr noundef nonnull align 8 dereferenceable(32) %histogram_name) #19
  ret ptr %retval.0
}